; Function Attrs: mustprogress uwtable
define void @_ZN3gmx26MrcDensityMapOfFloatWriterC2ERKNS_19MrcDensityMapHeaderENS_8ArrayRefIKfEE(ptr noundef nonnull writeonly align 8 captures(none) dereferenceable(8) %0, ptr noundef nonnull align 8 dereferenceable(1040) %1, ptr %2, ptr %3) unnamed_addr #0 align 2 personality ptr @__gxx_personality_v0 {
  %5 = tail call noalias noundef nonnull dereferenceable(1056) ptr @_Znwm(i64 noundef 1056) #24
  %6 = ptrtoint ptr %3 to i64
  %7 = ptrtoint ptr %2 to i64
  %8 = sub i64 %6, %7
  %9 = getelementptr inbounds nuw i8, ptr %2, i64 %8
  invoke void @_ZN3gmx26MrcDensityMapOfFloatWriter4ImplC1ERKNS_19MrcDensityMapHeaderENS_8ArrayRefIKfEE(ptr noundef nonnull align 8 dereferenceable(1056) %5, ptr noundef nonnull align 8 dereferenceable(1040) %1, ptr %2, ptr %9)
          to label %10 unwind label %11

10:                                               ; preds = %4
  store ptr %5, ptr %0, align 8, !tbaa !110
  ret void

11:                                               ; preds = %4
  %12 = landingpad { ptr, i32 }
          cleanup
  tail call void @_ZdlPvm(ptr noundef nonnull %5, i64 noundef 1056) #23
  resume { ptr, i32 } %12
}